Certificate:
    Data:
        Version: 3 (0x2)
        Serial Number: 3 (0x3)
    Signature Algorithm: sha256WithRSAEncryption
        Issuer: CN=udCA, ST=Pontevedra, C=ES/emailAddress=udca@gradiant.org, O=Gradiant, OU=CA
        Validity
            Not Before: Mar 14 17:10:42 2017 GMT
            Not After : Mar 13 17:10:42 2022 GMT
        Subject: CN=service-ud, ST=Pontevedra, C=ES/emailAddress=service_ud@gradiant.org, O=Gradiant, OU=service_ud
        Subject Public Key Info:
            Public Key Algorithm: rsaEncryption
                Public-Key: (4096 bit)
                Modulus:
                    00:c7:ca:50:1b:7b:cc:33:2f:0a:6e:a9:59:8f:f3:
                    36:15:d1:11:ea:6b:7a:56:bc:0f:7a:5b:c4:78:fb:
                    3d:ac:1c:17:b9:0e:f6:69:ee:10:bc:5d:37:d9:ed:
                    8f:ba:b3:73:65:5a:d3:ac:93:45:2c:cd:c4:f0:6a:
                    6a:18:d2:67:b4:b4:83:cc:29:d0:18:18:10:99:2c:
                    3a:a9:44:c1:3e:43:4d:66:b8:6f:aa:dc:95:20:4a:
                    1e:22:2e:90:17:ff:fd:f2:4a:06:c3:1a:69:fc:73:
                    79:6d:10:99:a0:ab:41:de:8b:cc:b9:35:81:90:c4:
                    d3:4e:e5:aa:fa:79:0e:8d:2e:2c:fa:40:b4:60:73:
                    83:31:f4:c3:08:1c:2a:61:4e:d0:77:00:ee:ac:3b:
                    98:2c:a0:6d:e2:69:54:f2:6d:ab:de:49:ae:13:5a:
                    17:6e:ec:48:01:b0:6d:c2:ee:b4:33:e4:5e:70:f9:
                    c2:c0:a2:71:c4:21:7d:3f:40:05:4a:d7:5c:76:36:
                    9a:72:da:b7:15:1e:08:7b:f0:98:30:67:89:4d:e7:
                    4f:72:7b:15:1c:51:f6:9e:d3:be:0c:75:b2:f3:41:
                    47:7a:b8:7a:46:72:6a:36:22:62:a8:2d:7d:5f:db:
                    73:0a:5f:0c:1b:44:74:38:bd:51:9b:96:2f:7f:9c:
                    3d:8b:5b:69:05:5e:48:45:fb:3d:2e:2b:5a:65:36:
                    f2:cf:00:3f:67:d1:2d:c2:77:e0:c8:ec:66:16:fe:
                    5c:2b:80:05:5e:e2:4f:74:d8:32:1b:6e:c0:17:6b:
                    b7:b8:13:7c:72:78:1b:64:d4:97:28:98:62:6e:e4:
                    78:5c:c9:b8:74:75:68:e5:54:df:46:fd:6d:98:d6:
                    78:5e:10:89:7a:69:7c:cb:fa:0b:66:30:ad:24:32:
                    e5:cf:8b:31:09:cf:fb:a6:97:38:86:8c:2a:3f:e5:
                    b8:2b:30:f2:3d:f5:12:a4:da:fa:f8:44:36:9a:eb:
                    44:ec:03:67:cb:80:0d:42:49:d3:ae:2a:c3:41:a2:
                    46:39:a6:6c:8e:35:5c:3c:7d:a5:80:07:55:08:c7:
                    6d:b4:f5:a5:40:7b:3e:96:71:18:fe:d5:74:ad:56:
                    52:5c:36:e0:6d:06:1e:ab:dd:0b:7f:43:90:bf:75:
                    e9:52:5d:cc:94:62:30:a0:cc:99:a4:6b:a7:ff:fe:
                    f7:1c:d9:89:07:f2:70:21:ef:c1:f6:cd:68:ef:86:
                    c4:dd:88:d4:14:04:3d:75:7f:8d:70:33:fc:07:cc:
                    22:a8:f8:3f:86:82:ce:ff:8a:7c:4f:01:da:a8:d2:
                    6f:a9:63:2c:a3:19:91:1c:f9:fa:e8:38:fd:16:68:
                    ec:3d:7d
                Exponent: 65537 (0x10001)
        X509v3 extensions:
            X509v3 Basic Constraints: 
                CA:FALSE
            X509v3 Key Usage: 
                Digital Signature, Non Repudiation, Key Encipherment
            X509v3 Subject Alternative Name: 
                DNS:service-ud
    Signature Algorithm: sha256WithRSAEncryption
         3c:1e:6a:a6:6e:0f:f3:59:47:d7:b9:a7:3d:3e:c3:a7:c2:1a:
         48:95:0d:a7:08:2b:bb:eb:c7:33:07:62:0c:51:52:ba:3c:69:
         30:10:7c:ca:bb:85:90:0b:44:e7:10:51:2a:ab:ec:73:c6:73:
         8e:cb:2f:c6:d8:71:2f:24:72:61:17:0d:92:a8:6c:64:03:ea:
         02:27:0d:69:32:61:d1:9b:41:35:f2:49:50:19:58:15:a5:67:
         11:5c:9f:86:54:7c:94:21:55:db:d1:88:50:43:94:4a:56:97:
         97:e6:ba:ad:93:96:63:f4:57:c5:3d:92:21:cd:40:44:0b:79:
         b8:6d:a4:85:01:1e:db:31:62:26:ff:82:f3:3e:a5:29:08:ce:
         e5:92:87:ea:66:c0:15:4c:9b:3b:0d:8c:78:73:5a:e7:96:9b:
         8e:93:39:f5:e1:20:ec:d4:a0:f1:e3:ba:44:ca:7c:1d:7b:5d:
         00:61:4f:29:4b:cd:da:e6:14:b3:f5:56:3a:cf:db:cd:fe:99:
         61:da:fe:fb:3a:05:68:cf:f1:e4:45:f5:ff:0f:3f:36:d7:25:
         62:e2:64:cd:1b:89:a5:3e:05:54:60:07:1c:91:62:83:00:38:
         18:5f:b2:15:08:75:3b:15:71:db:ed:ac:8e:b7:82:b1:d5:4e:
         4b:45:c9:92
-----BEGIN CERTIFICATE-----
MIIEpzCCA4+gAwIBAgIBAzANBgkqhkiG9w0BAQsFADBzMQ0wCwYDVQQDEwR1ZENB
MRMwEQYDVQQIEwpQb250ZXZlZHJhMQswCQYDVQQGEwJFUzEgMB4GCSqGSIb3DQEJ
ARYRdWRjYUBncmFkaWFudC5vcmcxETAPBgNVBAoTCEdyYWRpYW50MQswCQYDVQQL
EwJDQTAeFw0xNzAzMTQxNzEwNDJaFw0yMjAzMTMxNzEwNDJaMIGHMRMwEQYDVQQD
EwpzZXJ2aWNlLXVkMRMwEQYDVQQIEwpQb250ZXZlZHJhMQswCQYDVQQGEwJFUzEm
MCQGCSqGSIb3DQEJARYXc2VydmljZV91ZEBncmFkaWFudC5vcmcxETAPBgNVBAoT
CEdyYWRpYW50MRMwEQYDVQQLFApzZXJ2aWNlX3VkMIICIjANBgkqhkiG9w0BAQEF
AAOCAg8AMIICCgKCAgEAx8pQG3vMMy8KbqlZj/M2FdER6mt6VrwPelvEePs9rBwX
uQ72ae4QvF032e2PurNzZVrTrJNFLM3E8GpqGNJntLSDzCnQGBgQmSw6qUTBPkNN
ZrhvqtyVIEoeIi6QF//98koGwxpp/HN5bRCZoKtB3ovMuTWBkMTTTuWq+nkOjS4s
+kC0YHODMfTDCBwqYU7QdwDurDuYLKBt4mlU8m2r3kmuE1oXbuxIAbBtwu60M+Re
cPnCwKJxxCF9P0AFStdcdjaactq3FR4Ie/CYMGeJTedPcnsVHFH2ntO+DHWy80FH
erh6RnJqNiJiqC19X9tzCl8MG0R0OL1Rm5Yvf5w9i1tpBV5IRfs9LitaZTbyzwA/
Z9EtwnfgyOxmFv5cK4AFXuJPdNgyG27AF2u3uBN8cngbZNSXKJhibuR4XMm4dHVo
5VTfRv1tmNZ4XhCJeml8y/oLZjCtJDLlz4sxCc/7ppc4howqP+W4KzDyPfUSpNr6
+EQ2mutE7ANny4ANQknTrirDQaJGOaZsjjVcPH2lgAdVCMdttPWlQHs+lnEY/tV0
rVZSXDbgbQYeq90Lf0OQv3XpUl3MlGIwoMyZpGun//73HNmJB/JwIe/B9s1o74bE
3YjUFAQ9dX+NcDP8B8wiqPg/hoLO/4p8TwHaqNJvqWMsoxmRHPn66Dj9FmjsPX0C
AwEAAaMxMC8wCQYDVR0TBAIwADALBgNVHQ8EBAMCBeAwFQYDVR0RBA4wDIIKc2Vy
dmljZS11ZDANBgkqhkiG9w0BAQsFAAOCAQEAPB5qpm4P81lH17mnPT7Dp8IaSJUN
pwgru+vHMwdiDFFSujxpMBB8yruFkAtE5xBRKqvsc8ZzjssvxthxLyRyYRcNkqhs
ZAPqAicNaTJh0ZtBNfJJUBlYFaVnEVyfhlR8lCFV29GIUEOUSlaXl+a6rZOWY/RX
xT2SIc1ARAt5uG2khQEe2zFiJv+C8z6lKQjO5ZKH6mbAFUybOw2MeHNa55abjpM5
9eEg7NSg8eO6RMp8HXtdAGFPKUvN2uYUs/VWOs/bzf6ZYdr++zoFaM/x5EX1/w8/
NtclYuJkzRuJpT4FVGAHHJFigwA4GF+yFQh1OxVx2+2sjreCsdVOS0XJkg==
-----END CERTIFICATE-----
