Certificate:
    Data:
        Version: 3 (0x2)
        Serial Number: 4 (0x4)
    Signature Algorithm: sha256WithRSAEncryption
        Issuer: CN=tdCA, ST=Pontevedra, C=ES/emailAddress=tdca@gradiant.org, O=Gradiant, OU=CA
        Validity
            Not Before: Mar 14 17:07:57 2017 GMT
            Not After : Mar 13 17:07:57 2022 GMT
        Subject: CN=service-td, ST=Pontevedra, C=ES/emailAddress=service_td@gradiant.org, O=Gradiant, OU=service_td
        Subject Public Key Info:
            Public Key Algorithm: rsaEncryption
                Public-Key: (4096 bit)
                Modulus:
                    00:ae:03:a7:aa:07:27:1d:55:72:f0:29:bc:9a:7f:
                    21:89:a4:e2:9f:5f:c3:28:03:35:4e:3d:d7:3f:18:
                    26:4f:19:e0:c1:3e:ec:c4:c4:4e:63:d2:5d:bd:46:
                    df:22:7d:3d:3e:fa:39:78:68:e2:88:b9:d1:2b:01:
                    02:6a:71:0d:c5:f7:6e:9d:22:b8:87:7a:bd:33:3f:
                    e0:65:fe:c2:7d:cd:90:40:8f:a5:6b:1c:74:c4:7c:
                    37:9e:d2:2b:01:ff:08:5c:a5:c9:eb:4d:75:97:7f:
                    f3:e6:c5:44:95:a3:45:a2:c0:ba:97:12:b4:06:19:
                    5e:1b:f7:82:18:24:f7:9d:cc:3f:02:f0:df:cb:ea:
                    73:98:e4:c3:44:7d:46:c5:8f:34:8e:e5:71:8c:f6:
                    f8:47:ec:a6:d2:a9:1b:81:bb:a3:bf:44:10:13:3b:
                    c6:4c:bf:08:5a:4b:39:24:20:23:39:ee:d0:36:a3:
                    d4:98:15:9c:80:95:d3:84:49:4a:1c:65:d2:77:95:
                    a8:29:f3:5d:0f:be:fb:af:bc:8f:bd:90:e5:3d:f6:
                    30:90:18:cc:ba:81:e4:52:b5:b1:bf:7b:3d:ce:f0:
                    b7:5b:26:88:22:25:39:b5:e5:14:57:d7:85:ca:59:
                    3b:ba:08:31:12:04:9a:f6:cb:10:df:80:fa:bc:ba:
                    70:d0:13:63:6b:38:78:51:90:d1:d5:44:01:0d:eb:
                    29:1e:74:06:55:10:7d:7a:74:a0:39:d2:7f:f9:53:
                    9c:a6:f6:a9:8b:c5:37:97:20:db:7f:dc:22:3d:eb:
                    20:50:9c:ed:4e:11:e2:d5:98:81:0e:ab:da:b1:c4:
                    d3:26:73:d0:91:b7:ed:bc:17:6b:7b:e2:12:bf:b5:
                    f3:e1:c2:d6:00:7c:33:82:f9:81:2c:25:b9:bb:97:
                    ee:c2:21:2f:9b:ec:05:91:f5:96:f2:c9:61:67:d0:
                    af:dd:9c:bf:63:99:7d:8b:ef:a9:30:7c:e7:8b:43:
                    2c:80:d7:31:2b:8e:da:34:10:33:80:48:ff:5c:ab:
                    ba:46:76:f3:7d:40:91:76:e7:fa:e3:ba:6e:ce:59:
                    3b:d8:42:a9:07:04:8e:2f:a3:29:05:bd:08:ef:a7:
                    23:af:95:58:f7:f3:24:68:a6:cc:66:0d:0b:73:d3:
                    25:78:cb:31:26:10:05:84:89:f0:c3:0e:fa:7c:e3:
                    25:9e:1e:c3:0e:48:f3:45:ec:e9:6f:eb:5c:92:c3:
                    09:a9:9b:3f:ff:8c:fa:d9:d0:c5:d3:99:76:53:3d:
                    e2:e0:cb:54:a9:e7:73:5d:54:33:94:83:a8:47:c7:
                    34:01:1c:45:49:7e:1f:04:49:8f:e5:e4:83:1e:44:
                    ec:0a:bf
                Exponent: 65537 (0x10001)
        X509v3 extensions:
            X509v3 Basic Constraints: 
                CA:FALSE
            X509v3 Key Usage: 
                Digital Signature, Non Repudiation, Key Encipherment
            X509v3 Subject Alternative Name: 
                DNS:service-td
    Signature Algorithm: sha256WithRSAEncryption
         76:b8:8d:6b:2c:12:fe:68:e1:d0:27:d9:23:f4:84:b1:22:40:
         06:8a:c2:fd:03:c1:9b:6a:ff:b1:e3:f4:bc:c3:46:b7:83:e5:
         95:ca:4e:1a:73:80:3b:36:68:af:c6:cd:d4:5a:b8:1d:db:54:
         1d:2e:05:58:7f:e1:26:ce:59:f4:57:3e:67:fb:c6:d6:fb:e2:
         ff:ee:49:07:7f:aa:f3:78:1d:a6:7a:25:6f:34:50:41:30:2b:
         ab:bf:1e:c9:5a:ba:6c:34:27:f6:21:69:b1:3a:ae:b8:c6:c2:
         f8:33:6b:a5:59:3f:59:33:a6:39:15:ad:b7:24:3c:d9:4a:c1:
         e7:a2:93:da:9b:14:be:21:f3:95:da:ef:2d:29:31:9a:77:6f:
         d9:c2:dc:3e:81:07:38:31:10:ea:41:19:07:27:bd:e3:39:90:
         39:30:33:9f:ca:7d:89:28:aa:5d:19:bd:d3:00:db:b2:e7:69:
         1a:5d:33:f0:5c:1a:40:4d:a7:50:2b:02:d4:75:aa:18:07:08:
         68:0d:c7:ac:a4:9e:9c:4b:78:7a:88:c9:20:42:12:56:78:e0:
         be:c9:ba:27:61:d6:01:70:a2:ca:63:67:ee:53:98:02:52:8f:
         4d:7c:da:59:e0:48:cc:8f:c4:ad:b5:8f:50:5d:c8:4a:29:ee:
         86:09:0d:fa
-----BEGIN CERTIFICATE-----
MIIEpzCCA4+gAwIBAgIBBDANBgkqhkiG9w0BAQsFADBzMQ0wCwYDVQQDEwR0ZENB
MRMwEQYDVQQIEwpQb250ZXZlZHJhMQswCQYDVQQGEwJFUzEgMB4GCSqGSIb3DQEJ
ARYRdGRjYUBncmFkaWFudC5vcmcxETAPBgNVBAoTCEdyYWRpYW50MQswCQYDVQQL
EwJDQTAeFw0xNzAzMTQxNzA3NTdaFw0yMjAzMTMxNzA3NTdaMIGHMRMwEQYDVQQD
EwpzZXJ2aWNlLXRkMRMwEQYDVQQIEwpQb250ZXZlZHJhMQswCQYDVQQGEwJFUzEm
MCQGCSqGSIb3DQEJARYXc2VydmljZV90ZEBncmFkaWFudC5vcmcxETAPBgNVBAoT
CEdyYWRpYW50MRMwEQYDVQQLFApzZXJ2aWNlX3RkMIICIjANBgkqhkiG9w0BAQEF
AAOCAg8AMIICCgKCAgEArgOnqgcnHVVy8Cm8mn8hiaTin1/DKAM1Tj3XPxgmTxng
wT7sxMROY9JdvUbfIn09Pvo5eGjiiLnRKwECanENxfdunSK4h3q9Mz/gZf7Cfc2Q
QI+laxx0xHw3ntIrAf8IXKXJ6011l3/z5sVElaNFosC6lxK0BhleG/eCGCT3ncw/
AvDfy+pzmOTDRH1GxY80juVxjPb4R+ym0qkbgbujv0QQEzvGTL8IWks5JCAjOe7Q
NqPUmBWcgJXThElKHGXSd5WoKfNdD777r7yPvZDlPfYwkBjMuoHkUrWxv3s9zvC3
WyaIIiU5teUUV9eFylk7uggxEgSa9ssQ34D6vLpw0BNjazh4UZDR1UQBDespHnQG
VRB9enSgOdJ/+VOcpvapi8U3lyDbf9wiPesgUJztThHi1ZiBDqvascTTJnPQkbft
vBdre+ISv7Xz4cLWAHwzgvmBLCW5u5fuwiEvm+wFkfWW8slhZ9Cv3Zy/Y5l9i++p
MHzni0MsgNcxK47aNBAzgEj/XKu6RnbzfUCRduf647puzlk72EKpBwSOL6MpBb0I
76cjr5VY9/MkaKbMZg0Lc9MleMsxJhAFhInwww76fOMlnh7DDkjzRezpb+tcksMJ
qZs//4z62dDF05l2Uz3i4MtUqedzXVQzlIOoR8c0ARxFSX4fBEmP5eSDHkTsCr8C
AwEAAaMxMC8wCQYDVR0TBAIwADALBgNVHQ8EBAMCBeAwFQYDVR0RBA4wDIIKc2Vy
dmljZS10ZDANBgkqhkiG9w0BAQsFAAOCAQEAdriNaywS/mjh0CfZI/SEsSJABorC
/QPBm2r/seP0vMNGt4PllcpOGnOAOzZor8bN1Fq4HdtUHS4FWH/hJs5Z9Fc+Z/vG
1vvi/+5JB3+q83gdpnolbzRQQTArq78eyVq6bDQn9iFpsTquuMbC+DNrpVk/WTOm
ORWttyQ82UrB56KT2psUviHzldrvLSkxmndv2cLcPoEHODEQ6kEZBye94zmQOTAz
n8p9iSiqXRm90wDbsudpGl0z8FwaQE2nUCsC1HWqGAcIaA3HrKSenEt4eojJIEIS
Vnjgvsm6J2HWAXCiymNn7lOYAlKPTXzaWeBIzI/ErbWPUF3ISinuhgkN+g==
-----END CERTIFICATE-----
